ARM GAS  C:\Users\DENNIS~1\AppData\Local\Temp\ccgfclQN.s 			page 1


   1              		.syntax unified
   2              		.cpu cortex-m0
   3              		.fpu softvfp
   4              		.eabi_attribute 20, 1
   5              		.eabi_attribute 21, 1
   6              		.eabi_attribute 23, 3
   7              		.eabi_attribute 24, 1
   8              		.eabi_attribute 25, 1
   9              		.eabi_attribute 26, 1
  10              		.eabi_attribute 30, 1
  11              		.eabi_attribute 34, 0
  12              		.eabi_attribute 18, 4
  13              		.thumb
  14              		.syntax unified
  15              		.file	"GameCubeController.c"
  16              		.text
  17              	.Ltext0:
  18              		.cfi_sections	.debug_frame
  19              		.section	.text.readController,"ax",%progbits
  20              		.align	2
  21              		.global	readController
  22              		.code	16
  23              		.thumb_func
  24              		.type	readController, %function
  25              	readController:
  26              	.LFB33:
  27              		.file 1 "GameCubeController.c"
   1:GameCubeController.c **** #include "project.h"
   2:GameCubeController.c **** #include "stdio.h"
   3:GameCubeController.c **** #include "stdint.h"
   4:GameCubeController.c **** /*
   5:GameCubeController.c **** *   Function: readController
   6:GameCubeController.c **** *
   7:GameCubeController.c **** *   Gets:
   8:GameCubeController.c **** *   -(UINT8)controller: which controller has to be selected? one = controller one, all other: contr
   9:GameCubeController.c **** *   -(UINT8)rumble    : enable vibrating of controller.  zero = off, all other: on
  10:GameCubeController.c **** *
  11:GameCubeController.c **** *   Returns: UINT64 with all buttons and joysticks
  12:GameCubeController.c **** *
  13:GameCubeController.c **** *   
  14:GameCubeController.c **** *   ##MSB## (bit 60) START,Y,X,B,A,1,L,R,RL,D-UP,D-DOWN,D-RIGHT,D-LEFT,
  15:GameCubeController.c **** *                    Joystick Xval(8bit), Joystick Yval(8bit), 
  16:GameCubeController.c **** *                    C-Stick Xval(8bit), C-stick Yval(8-bit), 
  17:GameCubeController.c **** *                    Left buttonval(8-bit), Right buttonval(8-bit) ##LSB##(bit 0)
  18:GameCubeController.c **** *
  19:GameCubeController.c **** *   Warning: -interrupts are disabled for most of the function
  20:GameCubeController.c **** *            -Names of Input/output need to be Controller1 and Controller2
  21:GameCubeController.c **** *   
  22:GameCubeController.c **** */
  23:GameCubeController.c **** uint64 readController(uint8 controller, uint8 rumble) //controller 1 -> 1, anything else: 2 ; rumbl
  24:GameCubeController.c **** {
  28              		.loc 1 24 0
  29              		.cfi_startproc
  30              		@ args = 0, pretend = 0, frame = 72
  31              		@ frame_needed = 0, uses_anonymous_args = 0
  32              	.LVL0:
  33 0000 70B5     		push	{r4, r5, r6, lr}
ARM GAS  C:\Users\DENNIS~1\AppData\Local\Temp\ccgfclQN.s 			page 2


  34              		.cfi_def_cfa_offset 16
  35              		.cfi_offset 4, -16
  36              		.cfi_offset 5, -12
  37              		.cfi_offset 6, -8
  38              		.cfi_offset 14, -4
  39 0002 92B0     		sub	sp, sp, #72
  40              		.cfi_def_cfa_offset 88
  41              	.LVL1:
  25:GameCubeController.c ****     //defines
  26:GameCubeController.c ****     #define initNoRumble 0b0100000000000011000000001
  27:GameCubeController.c ****     #define initRumble   0b0100000000000011000000010
  28:GameCubeController.c ****     
  29:GameCubeController.c ****     //vars
  30:GameCubeController.c ****     uint32 sendingSequence;              //used to temp store init sequence and send
  31:GameCubeController.c ****     _Bool readBuffer[61];                //buffer to store readings from controller
  32:GameCubeController.c ****     uint64 formattedData = 0;            //formatted data to return
  33:GameCubeController.c ****     reg32 *controllerDR, controllerMASK; //used to store mem location of controller data pins (you 
  34:GameCubeController.c ****     int16 counter = 0;                   //declare before use (cycles)
  35:GameCubeController.c ****     
  36:GameCubeController.c ****     //perform checks for settings(controller/rumble)
  37:GameCubeController.c ****     if(controller == 1)
  42              		.loc 1 37 0
  43 0004 0128     		cmp	r0, #1
  44 0006 02D1     		bne	.L2
  45              	.LVL2:
  38:GameCubeController.c ****     {
  39:GameCubeController.c ****         controllerDR = &Controller1_DR;
  40:GameCubeController.c ****         controllerMASK = Controller1_MASK;
  46              		.loc 1 40 0
  47 0008 0123     		movs	r3, #1
  48 000a 0193     		str	r3, [sp, #4]
  49 000c 01E0     		b	.L3
  50              	.LVL3:
  51              	.L2:
  41:GameCubeController.c ****     }
  42:GameCubeController.c ****     else
  43:GameCubeController.c ****     {
  44:GameCubeController.c ****         controllerDR = &Controller2_DR;
  45:GameCubeController.c ****         controllerMASK = Controller2_MASK;
  52              		.loc 1 45 0
  53 000e 0223     		movs	r3, #2
  54 0010 0193     		str	r3, [sp, #4]
  55              	.L3:
  46:GameCubeController.c ****     }
  47:GameCubeController.c ****     
  48:GameCubeController.c ****     if(rumble == 0)
  56              		.loc 1 48 0
  57 0012 0029     		cmp	r1, #0
  58 0014 01D1     		bne	.L27
  49:GameCubeController.c ****     {
  50:GameCubeController.c ****         sendingSequence = initNoRumble;
  59              		.loc 1 50 0
  60 0016 5D4E     		ldr	r6, .L28
  61 0018 00E0     		b	.L4
  62              	.L27:
  51:GameCubeController.c ****     }
  52:GameCubeController.c ****     else
ARM GAS  C:\Users\DENNIS~1\AppData\Local\Temp\ccgfclQN.s 			page 3


  53:GameCubeController.c ****     {
  54:GameCubeController.c ****         sendingSequence = initRumble;
  63              		.loc 1 54 0
  64 001a 5D4E     		ldr	r6, .L28+4
  65              	.L4:
  66              	.LVL4:
  55:GameCubeController.c ****     }
  56:GameCubeController.c ****     
  57:GameCubeController.c ****     //##time sensitive code##
  58:GameCubeController.c ****     CyGlobalIntDisable;
  67              		.loc 1 58 0
  68              		.syntax divided
  69              	@ 58 "GameCubeController.c" 1
  70 001c 72B6     		CPSID   i
  71              	@ 0 "" 2
  72              	.LVL5:
  73              		.thumb
  74              		.syntax unified
  75              	.LBB2:
  59:GameCubeController.c ****     
  60:GameCubeController.c ****     //This bit-bangs the 24 bits to the controller
  61:GameCubeController.c ****     for(int i = 24; i >= 0; --i)
  76              		.loc 1 61 0
  77 001e 1824     		movs	r4, #24
  78 0020 20E0     		b	.L5
  79              	.LVL6:
  80              	.L8:
  62:GameCubeController.c ****     {
  63:GameCubeController.c ****         
  64:GameCubeController.c ****         if(((sendingSequence >> i) & 0x000001)  == 0)   //ZERO sequence
  81              		.loc 1 64 0
  82 0022 3300     		movs	r3, r6
  83 0024 E340     		lsrs	r3, r3, r4
  84 0026 DB07     		lsls	r3, r3, #31
  85 0028 0CD4     		bmi	.L6
  65:GameCubeController.c ****         {
  66:GameCubeController.c ****             *controllerDR &= ~controllerMASK;
  86              		.loc 1 66 0
  87 002a 019A     		ldr	r2, [sp, #4]
  88 002c 594D     		ldr	r5, .L28+8
  89 002e 2B68     		ldr	r3, [r5]
  90 0030 9343     		bics	r3, r2
  91 0032 2B60     		str	r3, [r5]
  67:GameCubeController.c ****             CyDelayCycles(50);
  92              		.loc 1 67 0
  93 0034 3220     		movs	r0, #50
  94 0036 FFF7FEFF 		bl	CyDelayCycles
  95              	.LVL7:
  68:GameCubeController.c ****             *controllerDR |= controllerMASK;
  96              		.loc 1 68 0
  97 003a 019A     		ldr	r2, [sp, #4]
  98 003c 2B68     		ldr	r3, [r5]
  99 003e 1343     		orrs	r3, r2
 100 0040 2B60     		str	r3, [r5]
 101 0042 0EE0     		b	.L7
 102              	.L6:
  69:GameCubeController.c ****             
ARM GAS  C:\Users\DENNIS~1\AppData\Local\Temp\ccgfclQN.s 			page 4


  70:GameCubeController.c ****             
  71:GameCubeController.c ****         }
  72:GameCubeController.c ****         else                                     //ONE sequence
  73:GameCubeController.c ****         {
  74:GameCubeController.c ****             *controllerDR &= ~controllerMASK;
 103              		.loc 1 74 0
 104 0044 019A     		ldr	r2, [sp, #4]
 105 0046 534D     		ldr	r5, .L28+8
 106 0048 2B68     		ldr	r3, [r5]
 107 004a 9343     		bics	r3, r2
 108 004c 2B60     		str	r3, [r5]
  75:GameCubeController.c ****             CyDelayCycles(1);
 109              		.loc 1 75 0
 110 004e 0120     		movs	r0, #1
 111 0050 FFF7FEFF 		bl	CyDelayCycles
 112              	.LVL8:
  76:GameCubeController.c ****             *controllerDR |= controllerMASK;
 113              		.loc 1 76 0
 114 0054 019A     		ldr	r2, [sp, #4]
 115 0056 2B68     		ldr	r3, [r5]
 116 0058 1343     		orrs	r3, r2
 117 005a 2B60     		str	r3, [r5]
  77:GameCubeController.c ****             CyDelayCycles(39);
 118              		.loc 1 77 0
 119 005c 2720     		movs	r0, #39
 120 005e FFF7FEFF 		bl	CyDelayCycles
 121              	.LVL9:
 122              	.L7:
  61:GameCubeController.c ****     {
 123              		.loc 1 61 0 discriminator 2
 124 0062 013C     		subs	r4, r4, #1
 125              	.LVL10:
 126              	.L5:
  61:GameCubeController.c ****     {
 127              		.loc 1 61 0 is_stmt 0 discriminator 1
 128 0064 002C     		cmp	r4, #0
 129 0066 DCDA     		bge	.L8
 130              	.LBE2:
  78:GameCubeController.c ****         }
  79:GameCubeController.c ****     }
  80:GameCubeController.c ****     
  81:GameCubeController.c ****     //this reads the returned 60 bytes (only button data)
  82:GameCubeController.c ****     CyDelayCycles(310);                          //sync to start bit
 131              		.loc 1 82 0 is_stmt 1
 132 0068 9B20     		movs	r0, #155
 133 006a 4000     		lsls	r0, r0, #1
 134 006c FFF7FEFF 		bl	CyDelayCycles
 135              	.LVL11:
  34:GameCubeController.c ****     
 136              		.loc 1 34 0
 137 0070 0024     		movs	r4, #0
 138              	.LVL12:
  83:GameCubeController.c ****     for(counter; counter <= 8; ++counter)
 139              		.loc 1 83 0
 140 0072 0AE0     		b	.L9
 141              	.LVL13:
 142              	.L10:
ARM GAS  C:\Users\DENNIS~1\AppData\Local\Temp\ccgfclQN.s 			page 5


  84:GameCubeController.c ****     {
  85:GameCubeController.c ****         readBuffer[counter] = Controller1_Read();
 143              		.loc 1 85 0 discriminator 2
 144 0074 FFF7FEFF 		bl	Controller1_Read
 145              	.LVL14:
 146 0078 431E     		subs	r3, r0, #1
 147 007a 9841     		sbcs	r0, r0, r3
 148 007c 02AB     		add	r3, sp, #8
 149 007e 1855     		strb	r0, [r3, r4]
  86:GameCubeController.c ****         CyDelayCycles(50);                       //sync to next bit
 150              		.loc 1 86 0 discriminator 2
 151 0080 3220     		movs	r0, #50
 152 0082 FFF7FEFF 		bl	CyDelayCycles
 153              	.LVL15:
  83:GameCubeController.c ****     for(counter; counter <= 8; ++counter)
 154              		.loc 1 83 0 discriminator 2
 155 0086 0134     		adds	r4, r4, #1
 156              	.LVL16:
 157 0088 24B2     		sxth	r4, r4
 158              	.LVL17:
 159              	.L9:
  83:GameCubeController.c ****     for(counter; counter <= 8; ++counter)
 160              		.loc 1 83 0 is_stmt 0 discriminator 1
 161 008a 082C     		cmp	r4, #8
 162 008c F2DD     		ble	.L10
  87:GameCubeController.c ****     }
  88:GameCubeController.c ****     
  89:GameCubeController.c ****     CyDelayCycles(5);                            //resync
 163              		.loc 1 89 0 is_stmt 1
 164 008e 0520     		movs	r0, #5
 165 0090 FFF7FEFF 		bl	CyDelayCycles
 166              	.LVL18:
  90:GameCubeController.c ****     for(counter; counter <= 17; ++counter)
 167              		.loc 1 90 0
 168 0094 0AE0     		b	.L11
 169              	.L12:
  91:GameCubeController.c ****     {
  92:GameCubeController.c ****         readBuffer[counter] = Controller1_Read();
 170              		.loc 1 92 0 discriminator 2
 171 0096 FFF7FEFF 		bl	Controller1_Read
 172              	.LVL19:
 173 009a 431E     		subs	r3, r0, #1
 174 009c 9841     		sbcs	r0, r0, r3
 175 009e 02AB     		add	r3, sp, #8
 176 00a0 1855     		strb	r0, [r3, r4]
  93:GameCubeController.c ****         CyDelayCycles(50);
 177              		.loc 1 93 0 discriminator 2
 178 00a2 3220     		movs	r0, #50
 179 00a4 FFF7FEFF 		bl	CyDelayCycles
 180              	.LVL20:
  90:GameCubeController.c ****     for(counter; counter <= 17; ++counter)
 181              		.loc 1 90 0 discriminator 2
 182 00a8 0134     		adds	r4, r4, #1
 183              	.LVL21:
 184 00aa 24B2     		sxth	r4, r4
 185              	.LVL22:
 186              	.L11:
ARM GAS  C:\Users\DENNIS~1\AppData\Local\Temp\ccgfclQN.s 			page 6


  90:GameCubeController.c ****     for(counter; counter <= 17; ++counter)
 187              		.loc 1 90 0 is_stmt 0 discriminator 1
 188 00ac 112C     		cmp	r4, #17
 189 00ae F2DD     		ble	.L12
  94:GameCubeController.c ****     }
  95:GameCubeController.c ****     
  96:GameCubeController.c ****     CyDelayCycles(5);
 190              		.loc 1 96 0 is_stmt 1
 191 00b0 0520     		movs	r0, #5
 192 00b2 FFF7FEFF 		bl	CyDelayCycles
 193              	.LVL23:
  97:GameCubeController.c ****     for(counter; counter <= 26; ++counter)
 194              		.loc 1 97 0
 195 00b6 0AE0     		b	.L13
 196              	.L14:
  98:GameCubeController.c ****     {
  99:GameCubeController.c ****         readBuffer[counter] = Controller1_Read();
 197              		.loc 1 99 0 discriminator 2
 198 00b8 FFF7FEFF 		bl	Controller1_Read
 199              	.LVL24:
 200 00bc 431E     		subs	r3, r0, #1
 201 00be 9841     		sbcs	r0, r0, r3
 202 00c0 02AB     		add	r3, sp, #8
 203 00c2 1855     		strb	r0, [r3, r4]
 100:GameCubeController.c ****         CyDelayCycles(50);
 204              		.loc 1 100 0 discriminator 2
 205 00c4 3220     		movs	r0, #50
 206 00c6 FFF7FEFF 		bl	CyDelayCycles
 207              	.LVL25:
  97:GameCubeController.c ****     for(counter; counter <= 26; ++counter)
 208              		.loc 1 97 0 discriminator 2
 209 00ca 0134     		adds	r4, r4, #1
 210              	.LVL26:
 211 00cc 24B2     		sxth	r4, r4
 212              	.LVL27:
 213              	.L13:
  97:GameCubeController.c ****     for(counter; counter <= 26; ++counter)
 214              		.loc 1 97 0 is_stmt 0 discriminator 1
 215 00ce 1A2C     		cmp	r4, #26
 216 00d0 F2DD     		ble	.L14
 101:GameCubeController.c ****     }
 102:GameCubeController.c ****     
 103:GameCubeController.c ****     CyDelayCycles(5);
 217              		.loc 1 103 0 is_stmt 1
 218 00d2 0520     		movs	r0, #5
 219 00d4 FFF7FEFF 		bl	CyDelayCycles
 220              	.LVL28:
 104:GameCubeController.c ****     for(counter; counter <= 35; ++counter)
 221              		.loc 1 104 0
 222 00d8 0AE0     		b	.L15
 223              	.L16:
 105:GameCubeController.c ****     {
 106:GameCubeController.c ****         readBuffer[counter] = Controller1_Read();
 224              		.loc 1 106 0 discriminator 2
 225 00da FFF7FEFF 		bl	Controller1_Read
 226              	.LVL29:
 227 00de 431E     		subs	r3, r0, #1
ARM GAS  C:\Users\DENNIS~1\AppData\Local\Temp\ccgfclQN.s 			page 7


 228 00e0 9841     		sbcs	r0, r0, r3
 229 00e2 02AB     		add	r3, sp, #8
 230 00e4 1855     		strb	r0, [r3, r4]
 107:GameCubeController.c ****         CyDelayCycles(50);
 231              		.loc 1 107 0 discriminator 2
 232 00e6 3220     		movs	r0, #50
 233 00e8 FFF7FEFF 		bl	CyDelayCycles
 234              	.LVL30:
 104:GameCubeController.c ****     for(counter; counter <= 35; ++counter)
 235              		.loc 1 104 0 discriminator 2
 236 00ec 0134     		adds	r4, r4, #1
 237              	.LVL31:
 238 00ee 24B2     		sxth	r4, r4
 239              	.LVL32:
 240              	.L15:
 104:GameCubeController.c ****     for(counter; counter <= 35; ++counter)
 241              		.loc 1 104 0 is_stmt 0 discriminator 1
 242 00f0 232C     		cmp	r4, #35
 243 00f2 F2DD     		ble	.L16
 108:GameCubeController.c ****     }
 109:GameCubeController.c ****     
 110:GameCubeController.c ****     CyDelayCycles(5);
 244              		.loc 1 110 0 is_stmt 1
 245 00f4 0520     		movs	r0, #5
 246 00f6 FFF7FEFF 		bl	CyDelayCycles
 247              	.LVL33:
 111:GameCubeController.c ****     for(counter; counter <= 44; ++counter)
 248              		.loc 1 111 0
 249 00fa 0AE0     		b	.L17
 250              	.L18:
 112:GameCubeController.c ****     {
 113:GameCubeController.c ****         readBuffer[counter] = Controller1_Read();
 251              		.loc 1 113 0 discriminator 2
 252 00fc FFF7FEFF 		bl	Controller1_Read
 253              	.LVL34:
 254 0100 431E     		subs	r3, r0, #1
 255 0102 9841     		sbcs	r0, r0, r3
 256 0104 02AB     		add	r3, sp, #8
 257 0106 1855     		strb	r0, [r3, r4]
 114:GameCubeController.c ****         CyDelayCycles(50);
 258              		.loc 1 114 0 discriminator 2
 259 0108 3220     		movs	r0, #50
 260 010a FFF7FEFF 		bl	CyDelayCycles
 261              	.LVL35:
 111:GameCubeController.c ****     for(counter; counter <= 44; ++counter)
 262              		.loc 1 111 0 discriminator 2
 263 010e 0134     		adds	r4, r4, #1
 264              	.LVL36:
 265 0110 24B2     		sxth	r4, r4
 266              	.LVL37:
 267              	.L17:
 111:GameCubeController.c ****     for(counter; counter <= 44; ++counter)
 268              		.loc 1 111 0 is_stmt 0 discriminator 1
 269 0112 2C2C     		cmp	r4, #44
 270 0114 F2DD     		ble	.L18
 115:GameCubeController.c ****     }
 116:GameCubeController.c ****     
ARM GAS  C:\Users\DENNIS~1\AppData\Local\Temp\ccgfclQN.s 			page 8


 117:GameCubeController.c ****     CyDelayCycles(5);
 271              		.loc 1 117 0 is_stmt 1
 272 0116 0520     		movs	r0, #5
 273 0118 FFF7FEFF 		bl	CyDelayCycles
 274              	.LVL38:
 118:GameCubeController.c ****     for(counter; counter <= 53; ++counter)
 275              		.loc 1 118 0
 276 011c 0AE0     		b	.L19
 277              	.L20:
 119:GameCubeController.c ****     {
 120:GameCubeController.c ****         readBuffer[counter] = Controller1_Read();
 278              		.loc 1 120 0 discriminator 2
 279 011e FFF7FEFF 		bl	Controller1_Read
 280              	.LVL39:
 281 0122 431E     		subs	r3, r0, #1
 282 0124 9841     		sbcs	r0, r0, r3
 283 0126 02AB     		add	r3, sp, #8
 284 0128 1855     		strb	r0, [r3, r4]
 121:GameCubeController.c ****         CyDelayCycles(50);
 285              		.loc 1 121 0 discriminator 2
 286 012a 3220     		movs	r0, #50
 287 012c FFF7FEFF 		bl	CyDelayCycles
 288              	.LVL40:
 118:GameCubeController.c ****     for(counter; counter <= 53; ++counter)
 289              		.loc 1 118 0 discriminator 2
 290 0130 0134     		adds	r4, r4, #1
 291              	.LVL41:
 292 0132 24B2     		sxth	r4, r4
 293              	.LVL42:
 294              	.L19:
 118:GameCubeController.c ****     for(counter; counter <= 53; ++counter)
 295              		.loc 1 118 0 is_stmt 0 discriminator 1
 296 0134 352C     		cmp	r4, #53
 297 0136 F2DD     		ble	.L20
 122:GameCubeController.c ****     }
 123:GameCubeController.c ****     
 124:GameCubeController.c ****     CyDelayCycles(5);
 298              		.loc 1 124 0 is_stmt 1
 299 0138 0520     		movs	r0, #5
 300 013a FFF7FEFF 		bl	CyDelayCycles
 301              	.LVL43:
 125:GameCubeController.c ****     for(counter; counter <= 60; ++counter)
 302              		.loc 1 125 0
 303 013e 0AE0     		b	.L21
 304              	.L22:
 126:GameCubeController.c ****     {
 127:GameCubeController.c ****         readBuffer[counter] = Controller1_Read();
 305              		.loc 1 127 0 discriminator 2
 306 0140 FFF7FEFF 		bl	Controller1_Read
 307              	.LVL44:
 308 0144 431E     		subs	r3, r0, #1
 309 0146 9841     		sbcs	r0, r0, r3
 310 0148 02AB     		add	r3, sp, #8
 311 014a 1855     		strb	r0, [r3, r4]
 128:GameCubeController.c ****         CyDelayCycles(50);
 312              		.loc 1 128 0 discriminator 2
 313 014c 3220     		movs	r0, #50
ARM GAS  C:\Users\DENNIS~1\AppData\Local\Temp\ccgfclQN.s 			page 9


 314 014e FFF7FEFF 		bl	CyDelayCycles
 315              	.LVL45:
 125:GameCubeController.c ****     for(counter; counter <= 60; ++counter)
 316              		.loc 1 125 0 discriminator 2
 317 0152 0134     		adds	r4, r4, #1
 318              	.LVL46:
 319 0154 24B2     		sxth	r4, r4
 320              	.LVL47:
 321              	.L21:
 125:GameCubeController.c ****     for(counter; counter <= 60; ++counter)
 322              		.loc 1 125 0 is_stmt 0 discriminator 1
 323 0156 3C2C     		cmp	r4, #60
 324 0158 F2DD     		ble	.L22
 129:GameCubeController.c ****     }
 130:GameCubeController.c ****     //### end of time sensitive code###
 131:GameCubeController.c ****     
 132:GameCubeController.c ****     CyGlobalIntEnable;
 325              		.loc 1 132 0 is_stmt 1
 326              		.syntax divided
 327              	@ 132 "GameCubeController.c" 1
 328 015a 62B6     		CPSIE   i
 329              	@ 0 "" 2
 330              	.LVL48:
 331              		.thumb
 332              		.syntax unified
 333              	.LBB3:
 133:GameCubeController.c ****     
 134:GameCubeController.c ****     //formatting it to return
 135:GameCubeController.c ****     for(int i = 0; i<=60; ++i)
 334              		.loc 1 135 0
 335 015c 0023     		movs	r3, #0
 336              	.LBE3:
  32:GameCubeController.c ****     reg32 *controllerDR, controllerMASK; //used to store mem location of controller data pins (you 
 337              		.loc 1 32 0
 338 015e 0020     		movs	r0, #0
 339 0160 0021     		movs	r1, #0
 340              	.LBB4:
 341              		.loc 1 135 0
 342 0162 0FE0     		b	.L23
 343              	.LVL49:
 344              	.L26:
 136:GameCubeController.c ****     {
 137:GameCubeController.c ****         if(readBuffer[i] == 1)
 345              		.loc 1 137 0
 346 0164 02AA     		add	r2, sp, #8
 347 0166 D25C     		ldrb	r2, [r2, r3]
 348 0168 002A     		cmp	r2, #0
 349 016a 08D0     		beq	.L24
 138:GameCubeController.c ****         {
 139:GameCubeController.c ****             formattedData = ((formattedData <<1) | 0x0000000000000001);
 350              		.loc 1 139 0
 351 016c 0400     		movs	r4, r0
 352 016e 0D00     		movs	r5, r1
 353 0170 2418     		adds	r4, r4, r0
 354 0172 4D41     		adcs	r5, r5, r1
 355 0174 0122     		movs	r2, #1
 356 0176 2243     		orrs	r2, r4
ARM GAS  C:\Users\DENNIS~1\AppData\Local\Temp\ccgfclQN.s 			page 10


 357 0178 1000     		movs	r0, r2
 358              	.LVL50:
 359 017a 2900     		movs	r1, r5
 360              	.LVL51:
 361 017c 01E0     		b	.L25
 362              	.L24:
 140:GameCubeController.c ****         }
 141:GameCubeController.c ****         else
 142:GameCubeController.c ****         {
 143:GameCubeController.c ****             formattedData = formattedData << 1;
 363              		.loc 1 143 0
 364 017e 0018     		adds	r0, r0, r0
 365 0180 4941     		adcs	r1, r1, r1
 366              	.LVL52:
 367              	.L25:
 135:GameCubeController.c ****     {
 368              		.loc 1 135 0 discriminator 2
 369 0182 0133     		adds	r3, r3, #1
 370              	.LVL53:
 371              	.L23:
 135:GameCubeController.c ****     {
 372              		.loc 1 135 0 is_stmt 0 discriminator 1
 373 0184 3C2B     		cmp	r3, #60
 374 0186 EDDD     		ble	.L26
 375              	.LBE4:
 144:GameCubeController.c ****         }
 145:GameCubeController.c ****         
 146:GameCubeController.c ****     }
 147:GameCubeController.c ****     
 148:GameCubeController.c ****     return formattedData;
 149:GameCubeController.c **** }...
 376              		.loc 1 149 0 is_stmt 1
 377 0188 12B0     		add	sp, sp, #72
 378              		@ sp needed
 379              	.LVL54:
 380 018a 70BD     		pop	{r4, r5, r6, pc}
 381              	.L29:
 382              		.align	2
 383              	.L28:
 384 018c 01068000 		.word	8390145
 385 0190 02068000 		.word	8390146
 386 0194 00010440 		.word	1074004224
 387              		.cfi_endproc
 388              	.LFE33:
 389              		.size	readController, .-readController
 390              		.text
 391              	.Letext0:
 392              		.file 2 "Generated_Source\\PSoC4/cytypes.h"
 393              		.file 3 "Generated_Source\\PSoC4/CyLib.h"
 394              		.file 4 "Generated_Source\\PSoC4/Controller1.h"